target datalayout = "e-m:e-p270:32:32-p271:32:32-p272:64:64-i64:64-i128:128-f80:128-n8:16:32:64-S128"
target triple = "x86_64-pc-linux-gnu"

%struct.CRYPTO_REF_COUNT = type { i32 }
%struct.crypto_ex_data_st = type { ptr, ptr }
%struct.evp_pkey_st = type { i32, i32, ptr, ptr, ptr, %union.legacy_pkey_st, %union.legacy_pkey_st, %struct.CRYPTO_REF_COUNT, ptr, ptr, i32, i8, %struct.crypto_ex_data_st, ptr, ptr, i64, ptr, i64, %struct.anon }
%union.legacy_pkey_st = type { ptr }
%struct.anon = type { i32, i32, i32 }

@.str.12 = private unnamed_addr constant [2 x i8] c"p\00", align 1
@.str.13 = private unnamed_addr constant [2 x i8] c"g\00", align 1
@.str.14 = private unnamed_addr constant [2 x i8] c"q\00", align 1
@.str.15 = private unnamed_addr constant [9 x i8] c"priv_len\00", align 1
@.str.16 = private unnamed_addr constant [4 x i8] c"pub\00", align 1
@.str.17 = private unnamed_addr constant [5 x i8] c"priv\00", align 1

; Function Attrs: nounwind uwtable
define internal i32 @dh_pkey_export_to(ptr noundef %0, ptr noundef %1, ptr noundef %2, ptr noundef %3, ptr noundef %4) #0 {
  %6 = alloca i32, align 4
  %7 = alloca ptr, align 8
  %8 = alloca ptr, align 8
  %9 = alloca ptr, align 8
  %10 = alloca ptr, align 8
  %11 = alloca ptr, align 8
  %12 = alloca ptr, align 8
  %13 = alloca ptr, align 8
  %14 = alloca ptr, align 8
  %15 = alloca ptr, align 8
  %16 = alloca ptr, align 8
  %17 = alloca i64, align 8
  %18 = alloca ptr, align 8
  %19 = alloca ptr, align 8
  %20 = alloca ptr, align 8
  %21 = alloca i32, align 4
  %22 = alloca i32, align 4
  %23 = alloca i32, align 4
  store ptr %0, ptr %7, align 8, !tbaa !32
  store ptr %1, ptr %8, align 8, !tbaa !40
  store ptr %2, ptr %9, align 8, !tbaa !40
  store ptr %3, ptr %10, align 8, !tbaa !65
  store ptr %4, ptr %11, align 8, !tbaa !27
  call void @llvm.lifetime.start.p0(i64 8, ptr %12) #4
  %24 = load ptr, ptr %7, align 8, !tbaa !32
  %25 = getelementptr inbounds nuw %struct.evp_pkey_st, ptr %24, i32 0, i32 5
  %26 = load ptr, ptr %25, align 8, !tbaa !53
  store ptr %26, ptr %12, align 8, !tbaa !3
  call void @llvm.lifetime.start.p0(i64 8, ptr %13) #4
  call void @llvm.lifetime.start.p0(i64 8, ptr %14) #4
  %27 = load ptr, ptr %12, align 8, !tbaa !3
  %28 = call ptr @DH_get0_p(ptr noundef %27)
  store ptr %28, ptr %14, align 8, !tbaa !29
  call void @llvm.lifetime.start.p0(i64 8, ptr %15) #4
  %29 = load ptr, ptr %12, align 8, !tbaa !3
  %30 = call ptr @DH_get0_g(ptr noundef %29)
  store ptr %30, ptr %15, align 8, !tbaa !29
  call void @llvm.lifetime.start.p0(i64 8, ptr %16) #4
  %31 = load ptr, ptr %12, align 8, !tbaa !3
  %32 = call ptr @DH_get0_q(ptr noundef %31)
  store ptr %32, ptr %16, align 8, !tbaa !29
  call void @llvm.lifetime.start.p0(i64 8, ptr %17) #4
  %33 = load ptr, ptr %12, align 8, !tbaa !3
  %34 = call i64 @DH_get_length(ptr noundef %33)
  store i64 %34, ptr %17, align 8, !tbaa !62
  call void @llvm.lifetime.start.p0(i64 8, ptr %18) #4
  %35 = load ptr, ptr %12, align 8, !tbaa !3
  %36 = call ptr @DH_get0_pub_key(ptr noundef %35)
  store ptr %36, ptr %18, align 8, !tbaa !29
  call void @llvm.lifetime.start.p0(i64 8, ptr %19) #4
  %37 = load ptr, ptr %12, align 8, !tbaa !3
  %38 = call ptr @DH_get0_priv_key(ptr noundef %37)
  store ptr %38, ptr %19, align 8, !tbaa !29
  call void @llvm.lifetime.start.p0(i64 8, ptr %20) #4
  store ptr null, ptr %20, align 8, !tbaa !66
  call void @llvm.lifetime.start.p0(i64 4, ptr %21) #4
  store i32 0, ptr %21, align 4, !tbaa !8
  call void @llvm.lifetime.start.p0(i64 4, ptr %22) #4
  store i32 0, ptr %22, align 4, !tbaa !8
  %39 = load ptr, ptr %14, align 8, !tbaa !29
  %40 = icmp eq ptr %39, null
  br i1 %40, label %44, label %41

41:                                               ; preds = %5
  %42 = load ptr, ptr %15, align 8, !tbaa !29
  %43 = icmp eq ptr %42, null
  br i1 %43, label %44, label %45

44:                                               ; preds = %41, %5
  store i32 0, ptr %6, align 4
  store i32 1, ptr %23, align 4
  br label %124

45:                                               ; preds = %41
  %46 = call ptr @OSSL_PARAM_BLD_new()
  store ptr %46, ptr %13, align 8, !tbaa !68
  %47 = load ptr, ptr %13, align 8, !tbaa !68
  %48 = icmp eq ptr %47, null
  br i1 %48, label %49, label %50

49:                                               ; preds = %45
  store i32 0, ptr %6, align 4
  store i32 1, ptr %23, align 4
  br label %124

50:                                               ; preds = %45
  %51 = load ptr, ptr %13, align 8, !tbaa !68
  %52 = load ptr, ptr %14, align 8, !tbaa !29
  %53 = call i32 @OSSL_PARAM_BLD_push_BN(ptr noundef %51, ptr noundef @.str.12, ptr noundef %52)
  %54 = icmp ne i32 %53, 0
  br i1 %54, label %55, label %60

55:                                               ; preds = %50
  %56 = load ptr, ptr %13, align 8, !tbaa !68
  %57 = load ptr, ptr %15, align 8, !tbaa !29
  %58 = call i32 @OSSL_PARAM_BLD_push_BN(ptr noundef %56, ptr noundef @.str.13, ptr noundef %57)
  %59 = icmp ne i32 %58, 0
  br i1 %59, label %61, label %60

60:                                               ; preds = %55, %50
  br label %121

61:                                               ; preds = %55
  %62 = load ptr, ptr %16, align 8, !tbaa !29
  %63 = icmp ne ptr %62, null
  br i1 %63, label %64, label %71

64:                                               ; preds = %61
  %65 = load ptr, ptr %13, align 8, !tbaa !68
  %66 = load ptr, ptr %16, align 8, !tbaa !29
  %67 = call i32 @OSSL_PARAM_BLD_push_BN(ptr noundef %65, ptr noundef @.str.14, ptr noundef %66)
  %68 = icmp ne i32 %67, 0
  br i1 %68, label %70, label %69

69:                                               ; preds = %64
  br label %121

70:                                               ; preds = %64
  br label %71

71:                                               ; preds = %70, %61
  %72 = load i32, ptr %21, align 4, !tbaa !8
  %73 = or i32 %72, 4
  store i32 %73, ptr %21, align 4, !tbaa !8
  %74 = load i64, ptr %17, align 8, !tbaa !62
  %75 = icmp sgt i64 %74, 0
  br i1 %75, label %76, label %85

76:                                               ; preds = %71
  %77 = load ptr, ptr %13, align 8, !tbaa !68
  %78 = load i64, ptr %17, align 8, !tbaa !62
  %79 = call i32 @OSSL_PARAM_BLD_push_long(ptr noundef %77, ptr noundef @.str.15, i64 noundef %78)
  %80 = icmp ne i32 %79, 0
  br i1 %80, label %82, label %81

81:                                               ; preds = %76
  br label %121

82:                                               ; preds = %76
  %83 = load i32, ptr %21, align 4, !tbaa !8
  %84 = or i32 %83, 128
  store i32 %84, ptr %21, align 4, !tbaa !8
  br label %85

85:                                               ; preds = %82, %71
  %86 = load ptr, ptr %18, align 8, !tbaa !29
  %87 = icmp ne ptr %86, null
  br i1 %87, label %88, label %97

88:                                               ; preds = %85
  %89 = load ptr, ptr %13, align 8, !tbaa !68
  %90 = load ptr, ptr %18, align 8, !tbaa !29
  %91 = call i32 @OSSL_PARAM_BLD_push_BN(ptr noundef %89, ptr noundef @.str.16, ptr noundef %90)
  %92 = icmp ne i32 %91, 0
  br i1 %92, label %94, label %93

93:                                               ; preds = %88
  br label %121

94:                                               ; preds = %88
  %95 = load i32, ptr %21, align 4, !tbaa !8
  %96 = or i32 %95, 2
  store i32 %96, ptr %21, align 4, !tbaa !8
  br label %97

97:                                               ; preds = %94, %85
  %98 = load ptr, ptr %19, align 8, !tbaa !29
  %99 = icmp ne ptr %98, null
  br i1 %99, label %100, label %109

100:                                              ; preds = %97
  %101 = load ptr, ptr %13, align 8, !tbaa !68
  %102 = load ptr, ptr %19, align 8, !tbaa !29
  %103 = call i32 @OSSL_PARAM_BLD_push_BN(ptr noundef %101, ptr noundef @.str.17, ptr noundef %102)
  %104 = icmp ne i32 %103, 0
  br i1 %104, label %106, label %105

105:                                              ; preds = %100
  br label %121

106:                                              ; preds = %100
  %107 = load i32, ptr %21, align 4, !tbaa !8
  %108 = or i32 %107, 1
  store i32 %108, ptr %21, align 4, !tbaa !8
  br label %109

109:                                              ; preds = %106, %97
  %110 = load ptr, ptr %13, align 8, !tbaa !68
  %111 = call ptr @OSSL_PARAM_BLD_to_param(ptr noundef %110)
  store ptr %111, ptr %20, align 8, !tbaa !66
  %112 = icmp eq ptr %111, null
  br i1 %112, label %113, label %114

113:                                              ; preds = %109
  br label %121

114:                                              ; preds = %109
  %115 = load ptr, ptr %9, align 8, !tbaa !40
  %116 = load ptr, ptr %8, align 8, !tbaa !40
  %117 = load i32, ptr %21, align 4, !tbaa !8
  %118 = load ptr, ptr %20, align 8, !tbaa !66
  %119 = call i32 %115(ptr noundef %116, i32 noundef %117, ptr noundef %118)
  store i32 %119, ptr %22, align 4, !tbaa !8
  %120 = load ptr, ptr %20, align 8, !tbaa !66
  call void @OSSL_PARAM_free(ptr noundef %120)
  br label %121

121:                                              ; preds = %114, %113, %105, %93, %81, %69, %60
  %122 = load ptr, ptr %13, align 8, !tbaa !68
  call void @OSSL_PARAM_BLD_free(ptr noundef %122)
  %123 = load i32, ptr %22, align 4, !tbaa !8
  store i32 %123, ptr %6, align 4
  store i32 1, ptr %23, align 4
  br label %124

124:                                              ; preds = %121, %49, %44
  call void @llvm.lifetime.end.p0(i64 4, ptr %22) #4
  call void @llvm.lifetime.end.p0(i64 4, ptr %21) #4
  call void @llvm.lifetime.end.p0(i64 8, ptr %20) #4
  call void @llvm.lifetime.end.p0(i64 8, ptr %19) #4
  call void @llvm.lifetime.end.p0(i64 8, ptr %18) #4
  call void @llvm.lifetime.end.p0(i64 8, ptr %17) #4
  call void @llvm.lifetime.end.p0(i64 8, ptr %16) #4
  call void @llvm.lifetime.end.p0(i64 8, ptr %15) #4
  call void @llvm.lifetime.end.p0(i64 8, ptr %14) #4
  call void @llvm.lifetime.end.p0(i64 8, ptr %13) #4
  call void @llvm.lifetime.end.p0(i64 8, ptr %12) #4
  %125 = load i32, ptr %6, align 4
  ret i32 %125
}