; Function Attrs: nounwind uwtable
define internal i32 @dh_pkey_export_to(ptr noundef readonly captures(none) %0, ptr noundef %1, ptr noundef readonly captures(none) %2, ptr readnone captures(none) %3, ptr readnone captures(none) %4) #0 {
  %6 = getelementptr inbounds nuw i8, ptr %0, i64 32
  %7 = load ptr, ptr %6, align 8, !tbaa !42
  %8 = tail call ptr @DH_get0_p(ptr noundef %7) #5
  %9 = tail call ptr @DH_get0_g(ptr noundef %7) #5
  %10 = tail call ptr @DH_get0_q(ptr noundef %7) #5
  %11 = tail call i64 @DH_get_length(ptr noundef %7) #5
  %12 = tail call ptr @DH_get0_pub_key(ptr noundef %7) #5
  %13 = tail call ptr @DH_get0_priv_key(ptr noundef %7) #5
  %14 = icmp eq ptr %8, null
  %15 = icmp eq ptr %9, null
  %or.cond = select i1 %14, i1 true, i1 %15
  br i1 %or.cond, label %46, label %16

16:                                               ; preds = %5
  %17 = tail call ptr @OSSL_PARAM_BLD_new() #5
  %18 = icmp eq ptr %17, null
  br i1 %18, label %46, label %19

19:                                               ; preds = %16
  %20 = tail call i32 @OSSL_PARAM_BLD_push_BN(ptr noundef nonnull %17, ptr noundef nonnull @.str.12, ptr noundef nonnull %8) #5
  %.not = icmp eq i32 %20, 0
  br i1 %.not, label %45, label %21

21:                                               ; preds = %19
  %22 = tail call i32 @OSSL_PARAM_BLD_push_BN(ptr noundef nonnull %17, ptr noundef nonnull @.str.13, ptr noundef nonnull %9) #5
  %.not49 = icmp eq i32 %22, 0
  br i1 %.not49, label %45, label %23

23:                                               ; preds = %21
  %.not50 = icmp eq ptr %10, null
  br i1 %.not50, label %26, label %24

24:                                               ; preds = %23
  %25 = tail call i32 @OSSL_PARAM_BLD_push_BN(ptr noundef nonnull %17, ptr noundef nonnull @.str.14, ptr noundef nonnull %10) #5
  %.not51 = icmp eq i32 %25, 0
  br i1 %.not51, label %45, label %26

26:                                               ; preds = %24, %23
  %27 = icmp sgt i64 %11, 0
  br i1 %27, label %28, label %30

28:                                               ; preds = %26
  %29 = tail call i32 @OSSL_PARAM_BLD_push_long(ptr noundef nonnull %17, ptr noundef nonnull @.str.15, i64 noundef %11) #5
  %.not52 = icmp eq i32 %29, 0
  br i1 %.not52, label %45, label %30

30:                                               ; preds = %28, %26
  %.039 = phi i32 [ 4, %26 ], [ 132, %28 ]
  %.not53 = icmp eq ptr %12, null
  br i1 %.not53, label %35, label %31

31:                                               ; preds = %30
  %32 = tail call i32 @OSSL_PARAM_BLD_push_BN(ptr noundef nonnull %17, ptr noundef nonnull @.str.16, ptr noundef nonnull %12) #5
  %.not54 = icmp eq i32 %32, 0
  br i1 %.not54, label %45, label %33

33:                                               ; preds = %31
  %34 = or disjoint i32 %.039, 2
  br label %35

35:                                               ; preds = %33, %30
  %.1 = phi i32 [ %34, %33 ], [ %.039, %30 ]
  %.not55 = icmp eq ptr %13, null
  br i1 %.not55, label %40, label %36

36:                                               ; preds = %35
  %37 = tail call i32 @OSSL_PARAM_BLD_push_BN(ptr noundef nonnull %17, ptr noundef nonnull @.str.17, ptr noundef nonnull %13) #5
  %.not56 = icmp eq i32 %37, 0
  br i1 %.not56, label %45, label %38

38:                                               ; preds = %36
  %39 = or i32 %.1, 1
  br label %40

40:                                               ; preds = %38, %35
  %.2 = phi i32 [ %39, %38 ], [ %.1, %35 ]
  %41 = tail call ptr @OSSL_PARAM_BLD_to_param(ptr noundef nonnull %17) #5
  %42 = icmp eq ptr %41, null
  br i1 %42, label %45, label %43

43:                                               ; preds = %40
  %44 = tail call i32 %2(ptr noundef %1, i32 noundef %.2, ptr noundef nonnull %41) #5
  tail call void @OSSL_PARAM_free(ptr noundef nonnull %41) #5
  br label %45

45:                                               ; preds = %40, %36, %31, %28, %24, %19, %21, %43
  %.0 = phi i32 [ 0, %40 ], [ %44, %43 ], [ 0, %36 ], [ 0, %31 ], [ 0, %28 ], [ 0, %24 ], [ 0, %21 ], [ 0, %19 ]
  tail call void @OSSL_PARAM_BLD_free(ptr noundef nonnull %17) #5
  br label %46

46:                                               ; preds = %16, %5, %45
  %.040 = phi i32 [ %.0, %45 ], [ 0, %5 ], [ 0, %16 ]
  ret i32 %.040
}